target datalayout = "e-m:e-p270:32:32-p271:32:32-p272:64:64-i64:64-i128:128-f80:128-n8:16:32:64-S128"
target triple = "x86_64-pc-linux-gnu"

%struct.opj_t1 = type { %struct.opj_mqc, ptr, ptr, i32, i32, i32, i32, i32, i32, ptr, i32 }
%struct.opj_mqc = type { i32, i32, i32, i32, ptr, ptr, ptr, [19 x ptr], ptr, ptr, [2 x i8] }

; Function Attrs: nounwind uwtable
define hidden void @opj_t1_destroy(ptr noundef %0) #0 {
  %2 = alloca ptr, align 8
  store ptr %0, ptr %2, align 8, !tbaa !7
  %3 = load ptr, ptr %2, align 8, !tbaa !7
  %4 = icmp ne ptr %3, null
  br i1 %4, label %6, label %5

5:                                                ; preds = %1
  br label %33

6:                                                ; preds = %1
  %7 = load ptr, ptr %2, align 8, !tbaa !7
  %8 = getelementptr inbounds nuw %struct.opj_t1, ptr %7, i32 0, i32 1
  %9 = load ptr, ptr %8, align 8, !tbaa !17
  %10 = icmp ne ptr %9, null
  br i1 %10, label %11, label %17

11:                                               ; preds = %6
  %12 = load ptr, ptr %2, align 8, !tbaa !7
  %13 = getelementptr inbounds nuw %struct.opj_t1, ptr %12, i32 0, i32 1
  %14 = load ptr, ptr %13, align 8, !tbaa !17
  call void @opj_aligned_free(ptr noundef %14)
  %15 = load ptr, ptr %2, align 8, !tbaa !7
  %16 = getelementptr inbounds nuw %struct.opj_t1, ptr %15, i32 0, i32 1
  store ptr null, ptr %16, align 8, !tbaa !17
  br label %17

17:                                               ; preds = %11, %6
  %18 = load ptr, ptr %2, align 8, !tbaa !7
  %19 = getelementptr inbounds nuw %struct.opj_t1, ptr %18, i32 0, i32 2
  %20 = load ptr, ptr %19, align 8, !tbaa !18
  %21 = icmp ne ptr %20, null
  br i1 %21, label %22, label %28

22:                                               ; preds = %17
  %23 = load ptr, ptr %2, align 8, !tbaa !7
  %24 = getelementptr inbounds nuw %struct.opj_t1, ptr %23, i32 0, i32 2
  %25 = load ptr, ptr %24, align 8, !tbaa !18
  call void @opj_aligned_free(ptr noundef %25)
  %26 = load ptr, ptr %2, align 8, !tbaa !7
  %27 = getelementptr inbounds nuw %struct.opj_t1, ptr %26, i32 0, i32 2
  store ptr null, ptr %27, align 8, !tbaa !18
  br label %28

28:                                               ; preds = %22, %17
  %29 = load ptr, ptr %2, align 8, !tbaa !7
  %30 = getelementptr inbounds nuw %struct.opj_t1, ptr %29, i32 0, i32 9
  %31 = load ptr, ptr %30, align 8, !tbaa !19
  call void @opj_free(ptr noundef %31)
  %32 = load ptr, ptr %2, align 8, !tbaa !7
  call void @opj_free(ptr noundef %32)
  br label %33

33:                                               ; preds = %28, %5
  ret void
}