; Function Attrs: nounwind uwtable
define hidden void @opj_t1_destroy(ptr noundef %0) local_unnamed_addr #0 {
  %.not = icmp eq ptr %0, null
  br i1 %.not, label %13, label %2

2:                                                ; preds = %1
  %3 = getelementptr inbounds nuw i8, ptr %0, i64 216
  %4 = load ptr, ptr %3, align 8, !tbaa !14
  %.not11 = icmp eq ptr %4, null
  br i1 %.not11, label %6, label %5

5:                                                ; preds = %2
  tail call void @opj_aligned_free(ptr noundef nonnull %4) #12
  store ptr null, ptr %3, align 8, !tbaa !14
  br label %6

6:                                                ; preds = %5, %2
  %7 = getelementptr inbounds nuw i8, ptr %0, i64 224
  %8 = load ptr, ptr %7, align 8, !tbaa !15
  %.not12 = icmp eq ptr %8, null
  br i1 %.not12, label %10, label %9

9:                                                ; preds = %6
  tail call void @opj_aligned_free(ptr noundef nonnull %8) #12
  store ptr null, ptr %7, align 8, !tbaa !15
  br label %10

10:                                               ; preds = %9, %6
  %11 = getelementptr inbounds nuw i8, ptr %0, i64 256
  %12 = load ptr, ptr %11, align 8, !tbaa !16
  tail call void @opj_free(ptr noundef %12) #12
  tail call void @opj_free(ptr noundef nonnull %0) #12
  br label %13

13:                                               ; preds = %1, %10
  ret void
}